
LedProject.elf:     file format elf32-avr

Sections:
Idx Name          Size      VMA       LMA       File off  Algn
  0 .data         00000000  00800100  00800100  000002ea  2**0
                  CONTENTS, ALLOC, LOAD, DATA
  1 .text         00000276  00000000  00000000  00000074  2**1
                  CONTENTS, ALLOC, LOAD, READONLY, CODE
  2 .bss          00000070  00800100  00800100  000002ea  2**0
                  ALLOC
  3 .comment      00000030  00000000  00000000  000002ea  2**0
                  CONTENTS, READONLY
  4 .note.gnu.avr.deviceinfo 00000040  00000000  00000000  0000031c  2**2
                  CONTENTS, READONLY
  5 .debug_aranges 00000120  00000000  00000000  0000035c  2**0
                  CONTENTS, READONLY, DEBUGGING
  6 .debug_info   0000132d  00000000  00000000  0000047c  2**0
                  CONTENTS, READONLY, DEBUGGING
  7 .debug_abbrev 00000bbb  00000000  00000000  000017a9  2**0
                  CONTENTS, READONLY, DEBUGGING
  8 .debug_line   00001b5e  00000000  00000000  00002364  2**0
                  CONTENTS, READONLY, DEBUGGING
  9 .debug_frame  000001e0  00000000  00000000  00003ec4  2**2
                  CONTENTS, READONLY, DEBUGGING
 10 .debug_str    0001084a  00000000  00000000  000040a4  2**0
                  CONTENTS, READONLY, DEBUGGING
 11 .debug_loc    00000884  00000000  00000000  000148ee  2**0
                  CONTENTS, READONLY, DEBUGGING
 12 .debug_ranges 000000c0  00000000  00000000  00015172  2**0
                  CONTENTS, READONLY, DEBUGGING
 13 .debug_macro  00003985  00000000  00000000  00015232  2**0
                  CONTENTS, READONLY, DEBUGGING

Disassembly of section .text:

00000000 <__vectors>:
   0:	2d c0       	rjmp	.+90     	; 0x5c <__ctors_end>
   2:	00 00       	nop
   4:	4b c0       	rjmp	.+150    	; 0x9c <__vector_1>
   6:	00 00       	nop
   8:	39 c0       	rjmp	.+114    	; 0x7c <__bad_interrupt>
   a:	00 00       	nop
   c:	37 c0       	rjmp	.+110    	; 0x7c <__bad_interrupt>
   e:	00 00       	nop
  10:	35 c0       	rjmp	.+106    	; 0x7c <__bad_interrupt>
  12:	00 00       	nop
  14:	33 c0       	rjmp	.+102    	; 0x7c <__bad_interrupt>
  16:	00 00       	nop
  18:	31 c0       	rjmp	.+98     	; 0x7c <__bad_interrupt>
  1a:	00 00       	nop
  1c:	2f c0       	rjmp	.+94     	; 0x7c <__bad_interrupt>
  1e:	00 00       	nop
  20:	2d c0       	rjmp	.+90     	; 0x7c <__bad_interrupt>
  22:	00 00       	nop
  24:	2b c0       	rjmp	.+86     	; 0x7c <__bad_interrupt>
  26:	00 00       	nop
  28:	29 c0       	rjmp	.+82     	; 0x7c <__bad_interrupt>
  2a:	00 00       	nop
  2c:	27 c0       	rjmp	.+78     	; 0x7c <__bad_interrupt>
  2e:	00 00       	nop
  30:	25 c0       	rjmp	.+74     	; 0x7c <__bad_interrupt>
  32:	00 00       	nop
  34:	23 c0       	rjmp	.+70     	; 0x7c <__bad_interrupt>
  36:	00 00       	nop
  38:	21 c0       	rjmp	.+66     	; 0x7c <__bad_interrupt>
  3a:	00 00       	nop
  3c:	1f c0       	rjmp	.+62     	; 0x7c <__bad_interrupt>
  3e:	00 00       	nop
  40:	1d c0       	rjmp	.+58     	; 0x7c <__bad_interrupt>
  42:	00 00       	nop
  44:	1b c0       	rjmp	.+54     	; 0x7c <__bad_interrupt>
  46:	00 00       	nop
  48:	19 c0       	rjmp	.+50     	; 0x7c <__bad_interrupt>
  4a:	00 00       	nop
  4c:	17 c0       	rjmp	.+46     	; 0x7c <__bad_interrupt>
  4e:	00 00       	nop
  50:	15 c0       	rjmp	.+42     	; 0x7c <__bad_interrupt>
  52:	00 00       	nop
  54:	13 c0       	rjmp	.+38     	; 0x7c <__bad_interrupt>
  56:	00 00       	nop
  58:	11 c0       	rjmp	.+34     	; 0x7c <__bad_interrupt>
	...

0000005c <__ctors_end>:
  5c:	11 24       	eor	r1, r1
  5e:	1f be       	out	0x3f, r1	; 63
  60:	cf ef       	ldi	r28, 0xFF	; 255
  62:	d8 e0       	ldi	r29, 0x08	; 8
  64:	de bf       	out	0x3e, r29	; 62
  66:	cd bf       	out	0x3d, r28	; 61

00000068 <__do_clear_bss>:
  68:	21 e0       	ldi	r18, 0x01	; 1
  6a:	a0 e0       	ldi	r26, 0x00	; 0
  6c:	b1 e0       	ldi	r27, 0x01	; 1
  6e:	01 c0       	rjmp	.+2      	; 0x72 <.do_clear_bss_start>

00000070 <.do_clear_bss_loop>:
  70:	1d 92       	st	X+, r1

00000072 <.do_clear_bss_start>:
  72:	a0 37       	cpi	r26, 0x70	; 112
  74:	b2 07       	cpc	r27, r18
  76:	e1 f7       	brne	.-8      	; 0x70 <.do_clear_bss_loop>
  78:	f7 d0       	rcall	.+494    	; 0x268 <main>
  7a:	fb c0       	rjmp	.+502    	; 0x272 <_exit>

0000007c <__bad_interrupt>:
  7c:	c1 cf       	rjmp	.-126    	; 0x0 <__vectors>

0000007e <sysclk_init>:
	/* Turn off all peripheral clocks that can be turned off.
	 * The debugWIRE system of some devices that shares system clock with the SPI module.
	 * Thus the PRSPI bit in the PRR register must not be set when debugging.
	 */
	for (i = 0; i < NUMBER_OF_POWER_REG; i++) {
		*(reg++) = 0xFF;
  7e:	8f ef       	ldi	r24, 0xFF	; 255
  80:	80 93 64 00 	sts	0x0064, r24	; 0x800064 <__TEXT_REGION_LENGTH__+0x7e0064>
  84:	08 95       	ret

00000086 <initBtns>:
uint8_t state = 0;

void initBtns(){
	
	//Clear the PD2 Pin
	DDRD &= ~(1 << DDD2);
  86:	52 98       	cbi	0x0a, 2	; 10
	//PD2 is now an input
	
	//LED PIN as output
	DDRB |= (1 << LED_PIN);
  88:	25 9a       	sbi	0x04, 5	; 4
	
	//Turn on the Pull-up
	PORTD |= (1<<PORTD2);
  8a:	5a 9a       	sbi	0x0b, 2	; 11
	//PD2 Is now an input with pull-up enabled
	
	EICRA |= (1 << ISC00); //set INT0 to trigger on ANY logic change ! @TODO Only on high
  8c:	e9 e6       	ldi	r30, 0x69	; 105
  8e:	f0 e0       	ldi	r31, 0x00	; 0
  90:	80 81       	ld	r24, Z
  92:	81 60       	ori	r24, 0x01	; 1
  94:	80 83       	st	Z, r24
	EIMSK |= (1 << INT0); //Turns on INT0
  96:	e8 9a       	sbi	0x1d, 0	; 29
	
	sei(); //Turn on interrupts
  98:	78 94       	sei
  9a:	08 95       	ret

0000009c <__vector_1>:
}

/************************************************************************/
/* The interrupt                                                        */
/************************************************************************/
ISR(INT0_vect){
  9c:	1f 92       	push	r1
  9e:	0f 92       	push	r0
  a0:	0f b6       	in	r0, 0x3f	; 63
  a2:	0f 92       	push	r0
  a4:	11 24       	eor	r1, r1
  a6:	2f 93       	push	r18
  a8:	3f 93       	push	r19
  aa:	4f 93       	push	r20
  ac:	5f 93       	push	r21
  ae:	6f 93       	push	r22
  b0:	7f 93       	push	r23
  b2:	8f 93       	push	r24
  b4:	9f 93       	push	r25
  b6:	af 93       	push	r26
  b8:	bf 93       	push	r27
  ba:	ef 93       	push	r30
  bc:	ff 93       	push	r31
	switch (state)
  be:	80 91 00 01 	lds	r24, 0x0100	; 0x800100 <_edata>
  c2:	81 30       	cpi	r24, 0x01	; 1
  c4:	59 f0       	breq	.+22     	; 0xdc <__vector_1+0x40>
  c6:	18 f0       	brcs	.+6      	; 0xce <__vector_1+0x32>
  c8:	82 30       	cpi	r24, 0x02	; 2
  ca:	79 f0       	breq	.+30     	; 0xea <__vector_1+0x4e>
  cc:	12 c0       	rjmp	.+36     	; 0xf2 <__vector_1+0x56>
	{
	case 0:
		led_blue();
  ce:	7a d0       	rcall	.+244    	; 0x1c4 <led_blue>
		state++;
  d0:	80 91 00 01 	lds	r24, 0x0100	; 0x800100 <_edata>
  d4:	8f 5f       	subi	r24, 0xFF	; 255
  d6:	80 93 00 01 	sts	0x0100, r24	; 0x800100 <_edata>
		break;
	case 1:
		led_green();
  da:	0d c0       	rjmp	.+26     	; 0xf6 <__vector_1+0x5a>
  dc:	61 d0       	rcall	.+194    	; 0x1a0 <led_green>
		state++;
  de:	80 91 00 01 	lds	r24, 0x0100	; 0x800100 <_edata>
  e2:	8f 5f       	subi	r24, 0xFF	; 255
  e4:	80 93 00 01 	sts	0x0100, r24	; 0x800100 <_edata>
		break;
	case 2:
		led_red();
  e8:	06 c0       	rjmp	.+12     	; 0xf6 <__vector_1+0x5a>
  ea:	7e d0       	rcall	.+252    	; 0x1e8 <led_red>
		state = 0;
  ec:	10 92 00 01 	sts	0x0100, r1	; 0x800100 <_edata>
		break;
  f0:	02 c0       	rjmp	.+4      	; 0xf6 <__vector_1+0x5a>
	default:
		state = 0;
  f2:	10 92 00 01 	sts	0x0100, r1	; 0x800100 <_edata>
		break;
	}
  f6:	ff 91       	pop	r31
  f8:	ef 91       	pop	r30
  fa:	bf 91       	pop	r27
  fc:	af 91       	pop	r26
  fe:	9f 91       	pop	r25
 100:	8f 91       	pop	r24
 102:	7f 91       	pop	r23
 104:	6f 91       	pop	r22
 106:	5f 91       	pop	r21
 108:	4f 91       	pop	r20
 10a:	3f 91       	pop	r19
 10c:	2f 91       	pop	r18
 10e:	0f 90       	pop	r0
 110:	0f be       	out	0x3f, r0	; 63
 112:	0f 90       	pop	r0
 114:	1f 90       	pop	r1
 116:	18 95       	reti

00000118 <ledsOn>:
		
		ledsOn();
		
}

void ledsOn(){
 118:	ed e6       	ldi	r30, 0x6D	; 109
 11a:	f1 e0       	ldi	r31, 0x01	; 1
 11c:	26 e1       	ldi	r18, 0x16	; 22
 11e:	31 e0       	ldi	r19, 0x01	; 1
	for (int i = MAX_LEDS; i > 0; i--)
	{
		leds[i-1].r = 120;
 120:	88 e7       	ldi	r24, 0x78	; 120
 122:	81 83       	std	Z+1, r24	; 0x01
		leds[i-1].g = 120;
 124:	80 83       	st	Z, r24
		leds[i-1].b = 120;
 126:	82 83       	std	Z+2, r24	; 0x02
 128:	33 97       	sbiw	r30, 0x03	; 3
		ledsOn();
		
}

void ledsOn(){
	for (int i = MAX_LEDS; i > 0; i--)
 12a:	e2 17       	cp	r30, r18
 12c:	f3 07       	cpc	r31, r19
 12e:	c9 f7       	brne	.-14     	; 0x122 <ledsOn+0xa>
	{
		leds[i-1].r = 120;
		leds[i-1].g = 120;
		leds[i-1].b = 120;
	}
	ws2812_setleds(leds,MAX_LEDS);
 130:	6d e1       	ldi	r22, 0x1D	; 29
 132:	70 e0       	ldi	r23, 0x00	; 0
 134:	89 e1       	ldi	r24, 0x19	; 25
 136:	91 e0       	ldi	r25, 0x01	; 1
 138:	69 c0       	rjmp	.+210    	; 0x20c <ws2812_setleds>
 13a:	08 95       	ret

0000013c <ledsOff>:
}

/************************************************************************/
/* Clears the strip                                                     */
/************************************************************************/
void ledsOff(){
 13c:	ed e6       	ldi	r30, 0x6D	; 109
 13e:	f1 e0       	ldi	r31, 0x01	; 1
 140:	86 e1       	ldi	r24, 0x16	; 22
 142:	91 e0       	ldi	r25, 0x01	; 1
	for (int i = MAX_LEDS; i > 0; i--)
	{
		leds[i-1].r = 0; 
 144:	11 82       	std	Z+1, r1	; 0x01
		leds[i-1].g = 0;
 146:	10 82       	st	Z, r1
		leds[i-1].b = 0;
 148:	12 82       	std	Z+2, r1	; 0x02
 14a:	33 97       	sbiw	r30, 0x03	; 3

/************************************************************************/
/* Clears the strip                                                     */
/************************************************************************/
void ledsOff(){
	for (int i = MAX_LEDS; i > 0; i--)
 14c:	e8 17       	cp	r30, r24
 14e:	f9 07       	cpc	r31, r25
 150:	c9 f7       	brne	.-14     	; 0x144 <ledsOff+0x8>
	{
		leds[i-1].r = 0; 
		leds[i-1].g = 0;
		leds[i-1].b = 0;
	}
	ws2812_setleds(leds,MAX_LEDS);
 152:	6d e1       	ldi	r22, 0x1D	; 29
 154:	70 e0       	ldi	r23, 0x00	; 0
 156:	89 e1       	ldi	r24, 0x19	; 25
 158:	91 e0       	ldi	r25, 0x01	; 1
 15a:	58 c0       	rjmp	.+176    	; 0x20c <ws2812_setleds>
 15c:	08 95       	ret

0000015e <initLeds>:
struct cRGB colors[8];
struct cRGB leds[MAX_LEDS];

void initLeds(){
	
		DDRB|= _BV(ws2812_pin);
 15e:	22 9a       	sbi	0x04, 2	; 4
		
		//Turn off all leds.
		ledsOff();
 160:	ed df       	rcall	.-38     	; 0x13c <ledsOff>
		
		// Creates the Rainbowcolors
	    colors[0].r=150; colors[0].g=150; colors[0].b=150;
 162:	e1 e0       	ldi	r30, 0x01	; 1
 164:	f1 e0       	ldi	r31, 0x01	; 1
 166:	86 e9       	ldi	r24, 0x96	; 150
 168:	81 83       	std	Z+1, r24	; 0x01
 16a:	80 83       	st	Z, r24
 16c:	82 83       	std	Z+2, r24	; 0x02
	    colors[1].r=255; colors[1].g=000; colors[1].b=000;//red
 16e:	8f ef       	ldi	r24, 0xFF	; 255
 170:	84 83       	std	Z+4, r24	; 0x04
 172:	13 82       	std	Z+3, r1	; 0x03
 174:	15 82       	std	Z+5, r1	; 0x05
	    colors[2].r=255; colors[2].g=100; colors[2].b=000;//orange
 176:	87 83       	std	Z+7, r24	; 0x07
 178:	94 e6       	ldi	r25, 0x64	; 100
 17a:	96 83       	std	Z+6, r25	; 0x06
 17c:	10 86       	std	Z+8, r1	; 0x08
	    colors[3].r=100; colors[3].g=255; colors[3].b=000;//yellow
 17e:	92 87       	std	Z+10, r25	; 0x0a
 180:	81 87       	std	Z+9, r24	; 0x09
 182:	13 86       	std	Z+11, r1	; 0x0b
	    colors[4].r=000; colors[4].g=255; colors[4].b=000;//green
 184:	15 86       	std	Z+13, r1	; 0x0d
 186:	84 87       	std	Z+12, r24	; 0x0c
 188:	16 86       	std	Z+14, r1	; 0x0e
	    colors[5].r=000; colors[5].g=100; colors[5].b=255;//light blue (türkis)
 18a:	10 8a       	std	Z+16, r1	; 0x10
 18c:	97 87       	std	Z+15, r25	; 0x0f
 18e:	81 8b       	std	Z+17, r24	; 0x11
	    colors[6].r=000; colors[6].g=000; colors[6].b=255;//blue
 190:	13 8a       	std	Z+19, r1	; 0x13
 192:	12 8a       	std	Z+18, r1	; 0x12
 194:	84 8b       	std	Z+20, r24	; 0x14
	    colors[7].r=100; colors[7].g=000; colors[7].b=255;//violet
 196:	96 8b       	std	Z+22, r25	; 0x16
 198:	15 8a       	std	Z+21, r1	; 0x15
		
		ledsOn();
 19a:	87 8b       	std	Z+23, r24	; 0x17
 19c:	bd cf       	rjmp	.-134    	; 0x118 <ledsOn>
 19e:	08 95       	ret

000001a0 <led_green>:
		leds[i-1].b = 0;
	}
	ws2812_setleds(leds,MAX_LEDS);
}

void led_green(){
 1a0:	ed e6       	ldi	r30, 0x6D	; 109
 1a2:	f1 e0       	ldi	r31, 0x01	; 1
 1a4:	26 e1       	ldi	r18, 0x16	; 22
 1a6:	31 e0       	ldi	r19, 0x01	; 1
	for (int i = MAX_LEDS; i > 0; i--)
	{
		leds[i-1].r = 0;
		leds[i-1].g = 255;
 1a8:	8f ef       	ldi	r24, 0xFF	; 255
}

void led_green(){
	for (int i = MAX_LEDS; i > 0; i--)
	{
		leds[i-1].r = 0;
 1aa:	11 82       	std	Z+1, r1	; 0x01
		leds[i-1].g = 255;
 1ac:	80 83       	st	Z, r24
		leds[i-1].b = 0;
 1ae:	12 82       	std	Z+2, r1	; 0x02
 1b0:	33 97       	sbiw	r30, 0x03	; 3
	}
	ws2812_setleds(leds,MAX_LEDS);
}

void led_green(){
	for (int i = MAX_LEDS; i > 0; i--)
 1b2:	e2 17       	cp	r30, r18
 1b4:	f3 07       	cpc	r31, r19
 1b6:	c9 f7       	brne	.-14     	; 0x1aa <led_green+0xa>
	{
		leds[i-1].r = 0;
		leds[i-1].g = 255;
		leds[i-1].b = 0;
	}
	ws2812_setleds(leds,MAX_LEDS);
 1b8:	6d e1       	ldi	r22, 0x1D	; 29
 1ba:	70 e0       	ldi	r23, 0x00	; 0
 1bc:	89 e1       	ldi	r24, 0x19	; 25
 1be:	91 e0       	ldi	r25, 0x01	; 1
 1c0:	25 c0       	rjmp	.+74     	; 0x20c <ws2812_setleds>
 1c2:	08 95       	ret

000001c4 <led_blue>:
}

void led_blue(){
 1c4:	ed e6       	ldi	r30, 0x6D	; 109
 1c6:	f1 e0       	ldi	r31, 0x01	; 1
 1c8:	26 e1       	ldi	r18, 0x16	; 22
 1ca:	31 e0       	ldi	r19, 0x01	; 1
	for (int i = MAX_LEDS; i > 0; i--)
	{
		leds[i-1].r = 0;
		leds[i-1].g = 0;
		leds[i-1].b = 255;
 1cc:	8f ef       	ldi	r24, 0xFF	; 255
}

void led_blue(){
	for (int i = MAX_LEDS; i > 0; i--)
	{
		leds[i-1].r = 0;
 1ce:	11 82       	std	Z+1, r1	; 0x01
		leds[i-1].g = 0;
 1d0:	10 82       	st	Z, r1
		leds[i-1].b = 255;
 1d2:	82 83       	std	Z+2, r24	; 0x02
 1d4:	33 97       	sbiw	r30, 0x03	; 3
	}
	ws2812_setleds(leds,MAX_LEDS);
}

void led_blue(){
	for (int i = MAX_LEDS; i > 0; i--)
 1d6:	e2 17       	cp	r30, r18
 1d8:	f3 07       	cpc	r31, r19
 1da:	c9 f7       	brne	.-14     	; 0x1ce <led_blue+0xa>
	{
		leds[i-1].r = 0;
		leds[i-1].g = 0;
		leds[i-1].b = 255;
	}
	ws2812_setleds(leds,MAX_LEDS);
 1dc:	6d e1       	ldi	r22, 0x1D	; 29
 1de:	70 e0       	ldi	r23, 0x00	; 0
 1e0:	89 e1       	ldi	r24, 0x19	; 25
 1e2:	91 e0       	ldi	r25, 0x01	; 1
 1e4:	13 c0       	rjmp	.+38     	; 0x20c <ws2812_setleds>
 1e6:	08 95       	ret

000001e8 <led_red>:
}

void led_red(){
 1e8:	ed e6       	ldi	r30, 0x6D	; 109
 1ea:	f1 e0       	ldi	r31, 0x01	; 1
 1ec:	26 e1       	ldi	r18, 0x16	; 22
 1ee:	31 e0       	ldi	r19, 0x01	; 1
	for (int i = MAX_LEDS; i > 0; i--)
	{
		leds[i-1].r = 255;
 1f0:	8f ef       	ldi	r24, 0xFF	; 255
 1f2:	81 83       	std	Z+1, r24	; 0x01
		leds[i-1].g = 0;
 1f4:	10 82       	st	Z, r1
		leds[i-1].b = 0;
 1f6:	12 82       	std	Z+2, r1	; 0x02
 1f8:	33 97       	sbiw	r30, 0x03	; 3
	}
	ws2812_setleds(leds,MAX_LEDS);
}

void led_red(){
	for (int i = MAX_LEDS; i > 0; i--)
 1fa:	e2 17       	cp	r30, r18
 1fc:	f3 07       	cpc	r31, r19
 1fe:	c9 f7       	brne	.-14     	; 0x1f2 <led_red+0xa>
	{
		leds[i-1].r = 255;
		leds[i-1].g = 0;
		leds[i-1].b = 0;
	}
	ws2812_setleds(leds,MAX_LEDS);
 200:	6d e1       	ldi	r22, 0x1D	; 29
 202:	70 e0       	ldi	r23, 0x00	; 0
 204:	89 e1       	ldi	r24, 0x19	; 25
 206:	91 e0       	ldi	r25, 0x01	; 1
 208:	01 c0       	rjmp	.+2      	; 0x20c <ws2812_setleds>
 20a:	08 95       	ret

0000020c <ws2812_setleds>:
   ws2812_setleds_pin(ledarray,leds, _BV(ws2812_pin));
}

void inline ws2812_setleds_pin(struct cRGB *ledarray, uint16_t leds, uint8_t pinmask)
{
  ws2812_sendarray_mask((uint8_t*)ledarray,leds+leds+leds,pinmask);
 20c:	9b 01       	movw	r18, r22
 20e:	22 0f       	add	r18, r18
 210:	33 1f       	adc	r19, r19
 212:	62 0f       	add	r22, r18
 214:	73 1f       	adc	r23, r19
void inline ws2812_sendarray_mask(uint8_t *data,uint16_t datlen,uint8_t maskhi)
{
  uint8_t curbyte,ctr,masklo;
  uint8_t sreg_prev;
  
  ws2812_DDRREG |= maskhi; // Enable output
 216:	22 9a       	sbi	0x04, 2	; 4
  
  masklo	=~maskhi&ws2812_PORTREG;
 218:	25 b1       	in	r18, 0x05	; 5
 21a:	2b 7f       	andi	r18, 0xFB	; 251
  maskhi |=        ws2812_PORTREG;
 21c:	35 b1       	in	r19, 0x05	; 5
 21e:	34 60       	ori	r19, 0x04	; 4
  
  sreg_prev=SREG;
 220:	4f b7       	in	r20, 0x3f	; 63
  cli();  
 222:	f8 94       	cli

  while (datlen--) {
 224:	61 15       	cp	r22, r1
 226:	71 05       	cpc	r23, r1
 228:	b1 f0       	breq	.+44     	; 0x256 <loop54+0x22>
 22a:	fc 01       	movw	r30, r24
 22c:	68 0f       	add	r22, r24
 22e:	79 1f       	adc	r23, r25
    curbyte=*data++;
 230:	91 91       	ld	r25, Z+
    
    asm volatile(
 232:	88 e0       	ldi	r24, 0x08	; 8

00000234 <loop54>:
 234:	35 b9       	out	0x05, r19	; 5
 236:	00 00       	nop
 238:	00 c0       	rjmp	.+0      	; 0x23a <loop54+0x6>
 23a:	97 ff       	sbrs	r25, 7
 23c:	25 b9       	out	0x05, r18	; 5
 23e:	99 0f       	add	r25, r25
 240:	00 00       	nop
 242:	00 c0       	rjmp	.+0      	; 0x244 <loop54+0x10>
 244:	00 c0       	rjmp	.+0      	; 0x246 <loop54+0x12>
 246:	00 c0       	rjmp	.+0      	; 0x248 <loop54+0x14>
 248:	25 b9       	out	0x05, r18	; 5
 24a:	00 c0       	rjmp	.+0      	; 0x24c <loop54+0x18>
 24c:	8a 95       	dec	r24
 24e:	91 f7       	brne	.-28     	; 0x234 <loop54>
  maskhi |=        ws2812_PORTREG;
  
  sreg_prev=SREG;
  cli();  

  while (datlen--) {
 250:	e6 17       	cp	r30, r22
 252:	f7 07       	cpc	r31, r23
 254:	69 f7       	brne	.-38     	; 0x230 <ws2812_setleds+0x24>
    :	"=&d" (ctr)
    :	"r" (curbyte), "I" (_SFR_IO_ADDR(ws2812_PORTREG)), "r" (maskhi), "r" (masklo)
    );
  }
  
  SREG=sreg_prev;
 256:	4f bf       	out	0x3f, r20	; 63
	#else
		//round up by default
		__ticks_dc = (uint32_t)(ceil(fabs(__tmp)));
	#endif

	__builtin_avr_delay_cycles(__ticks_dc);
 258:	8f ea       	ldi	r24, 0xAF	; 175
 25a:	94 e0       	ldi	r25, 0x04	; 4
 25c:	01 97       	sbiw	r24, 0x01	; 1
 25e:	f1 f7       	brne	.-4      	; 0x25c <loop54+0x28>
 260:	00 c0       	rjmp	.+0      	; 0x262 <loop54+0x2e>
 262:	00 00       	nop
 264:	08 95       	ret

00000266 <board_init>:
#include <asf.h>
#include <board.h>
#include <conf_board.h>

void board_init(void)
{
 266:	08 95       	ret

00000268 <main>:
#include "Input/btnInterrupt.h"
#include "uart/uart_communication.h"

int main (void)
{
	sysclk_init();
 268:	0a df       	rcall	.-492    	; 0x7e <sysclk_init>
	board_init();
 26a:	fd df       	rcall	.-6      	; 0x266 <board_init>
	initLeds();
 26c:	78 df       	rcall	.-272    	; 0x15e <initLeds>
 26e:	0b df       	rcall	.-490    	; 0x86 <initBtns>
	initBtns();
 270:	ff cf       	rjmp	.-2      	; 0x270 <main+0x8>

00000272 <_exit>:
 272:	f8 94       	cli

00000274 <__stop_program>:
 274:	ff cf       	rjmp	.-2      	; 0x274 <__stop_program>
